(lp0
(lp1
(dp2
S'input_0'
p3
F-18.0
sa(dp4
S'output_0'
p5
F0.6603167082440802
saa(lp6
(dp7
g3
F-17.9
sa(dp8
g5
F0.5820442524021224
saa(lp9
(dp10
g3
F-17.8
sa(dp11
g5
F0.49795620278841546
saa(lp12
(dp13
g3
F-17.7
sa(dp14
g5
F0.4088927393988798
saa(lp15
(dp16
g3
F-17.6
sa(dp17
g5
F0.31574375491924334
saa(lp18
(dp19
g3
F-17.5
sa(dp20
g5
F0.21943996321145934
saa(lp21
(dp22
g3
F-17.4
sa(dp23
g5
F0.12094359992847413
saa(lp24
(dp25
g3
F-17.3
sa(dp26
g5
F0.021238808173646012
saa(lp27
(dp28
g3
F-17.2
sa(dp29
g5
F-0.07867819473184015
saa(lp30
(dp31
g3
F-17.1
sa(dp32
g5
F-0.17780907112311564
saa(lp33
(dp34
g3
F-17.0
sa(dp35
g5
F-0.27516333805159693
saa(lp36
(dp37
g3
F-16.9
sa(dp38
g5
F-0.36976826386317313
saa(lp39
(dp40
g3
F-16.8
sa(dp41
g5
F-0.46067858741136253
saa(lp42
(dp43
g3
F-16.7
sa(dp44
g5
F-0.5469859627942356
saa(lp45
(dp46
g3
F-16.6
sa(dp47
g5
F-0.627828035246386
saa(lp48
(dp49
g3
F-16.5
sa(dp50
g5
F-0.7023970575027135
saa(lp51
(dp52
g3
F-16.4
sa(dp53
g5
F-0.7699479605420718
saa(lp54
(dp55
g3
F-16.3
sa(dp56
g5
F-0.829805798070649
saa(lp57
(dp58
g3
F-16.2
sa(dp59
g5
F-0.8813724903622346
saa(lp60
(dp61
g3
F-16.1
sa(dp62
g5
F-0.9241328000731296
saa(lp63
(dp64
g3
F-16.0
sa(dp65
g5
F-0.9576594803233847
saa(lp66
(dp67
g3
F-15.9
sa(dp68
g5
F-0.9816175436063844
saa(lp69
(dp70
g3
F-15.8
sa(dp71
g5
F-0.9957676088732885
saa(lp72
(dp73
g3
F-15.7
sa(dp74
g5
F-0.9999682933493399
saa(lp75
(dp76
g3
F-15.6
sa(dp77
g5
F-0.9941776251838151
saa(lp78
(dp79
g3
F-15.5
sa(dp80
g5
F-0.9784534628188842
saa(lp81
(dp82
g3
F-15.4
sa(dp83
g5
F-0.9529529168871803
saa(lp84
(dp85
g3
F-15.3
sa(dp86
g5
F-0.9179307804142933
saa(lp87
(dp88
g3
F-15.2
sa(dp89
g5
F-0.8737369830110802
saa(lp90
(dp91
g3
F-15.1
sa(dp92
g5
F-0.8208130944926683
saa(lp93
(dp94
g3
F-15.0
sa(dp95
g5
F-0.7596879128588212
saa(lp96
(dp97
g3
F-14.9
sa(dp98
g5
F-0.6909721807191258
saa(lp99
(dp100
g3
F-14.8
sa(dp101
g5
F-0.6153524829547208
saa(lp102
(dp103
g3
F-14.7
sa(dp104
g5
F-0.5335843865891177
saa(lp105
(dp106
g3
F-14.6
sa(dp107
g5
F-0.4464848914122656
saa(lp108
(dp109
g3
F-14.5
sa(dp110
g5
F-0.354924266788705
saa(lp111
(dp112
g3
F-14.4
sa(dp113
g5
F-0.25981735621375585
saa(lp114
(dp115
g3
F-14.3
sa(dp116
g5
F-0.16211443649971827
saa(lp117
(dp118
g3
F-14.2
sa(dp119
g5
F-0.06279172292408176
saa(lp120
(dp121
g3
F-14.1
sa(dp122
g5
F0.0371583847908264
saa(lp123
(dp124
g3
F-14.0
sa(dp125
g5
F0.1367372182078336
saa(lp126
(dp127
g3
F-13.9
sa(dp128
g5
F0.23494981853982308
saa(lp129
(dp130
g3
F-13.8
sa(dp131
g5
F0.33081487794904696
saa(lp132
(dp133
g3
F-13.7
sa(dp134
g5
F0.42337454445066547
saa(lp135
(dp136
g3
F-13.6
sa(dp137
g5
F0.511703992453149
saa(lp138
(dp139
g3
F-13.5
sa(dp140
g5
F0.594920663309892
saa(lp141
(dp142
g3
F-13.4
sa(dp143
g5
F0.6721930835534681
saa(lp144
(dp145
g3
F-13.3
sa(dp146
g5
F0.7427491727036695
saa(lp147
(dp148
g3
F-13.2
sa(dp149
g5
F0.8058839576404507
saa(lp150
(dp151
g3
F-13.1
sa(dp152
g5
F0.8609666164623064
saa(lp153
(dp154
g3
F-13.0
sa(dp155
g5
F0.9074467814501962
saa(lp156
(dp157
g3
F-12.9
sa(dp158
g5
F0.9448600381598606
saa(lp159
(dp160
g3
F-12.8
sa(dp161
g5
F0.9728325656974354
saa(lp162
(dp163
g3
F-12.7
sa(dp164
g5
F0.9910848718142533
saa(lp165
(dp166
g3
F-12.6
sa(dp167
g5
F0.9994345855010047
saa(lp168
(dp169
g3
F-12.5
sa(dp170
g5
F0.9977982791785807
saa(lp171
(dp172
g3
F-12.4
sa(dp173
g5
F0.9861923022788637
saa(lp174
(dp175
g3
F-12.3
sa(dp176
g5
F0.9647326178866098
saa(lp177
(dp178
g3
F-12.2
sa(dp179
g5
F0.9336336440746373
saa(lp180
(dp181
g3
F-12.1
sa(dp182
g5
F0.8932061115093225
saa(lp183
(dp184
g3
F-12.0
sa(dp185
g5
F0.8438539587324921
saa(lp186
(dp187
g3
F-11.9
sa(dp188
g5
F0.7860702961410394
saa(lp189
(dp190
g3
F-11.8
sa(dp191
g5
F0.7204324789908387
saa(lp192
(dp193
g3
F-11.7
sa(dp194
g5
F0.6475963386538759
saa(lp195
(dp196
g3
F-11.6
sa(dp197
g5
F0.5682896297679736
saa(lp198
(dp199
g3
F-11.5
sa(dp200
g5
F0.4833047587530059
saa(lp201
(dp202
g3
F-11.4
sa(dp203
g5
F0.3934908663478909
saa(lp204
(dp205
g3
F-11.3
sa(dp206
g5
F0.2997453432770149
saa(lp207
(dp208
g3
F-11.2
sa(dp209
g5
F0.2030048638187504
saa(lp210
(dp211
g3
F-11.1
sa(dp212
g5
F0.10423602686569687
saa(lp213
(dp214
g3
F-11.0
sa(dp215
g5
F0.004425697988050786
saa(lp216
(dp217
g3
F-10.9
sa(dp218
g5
F-0.09542885100095067
saa(lp219
(dp220
g3
F-10.8
sa(dp221
g5
F-0.1943299064553348
saa(lp222
(dp223
g3
F-10.7
sa(dp224
g5
F-0.29128928172134555
saa(lp225
(dp226
g3
F-10.6
sa(dp227
g5
F-0.3853381907718297
saa(lp228
(dp229
g3
F-10.5
sa(dp230
g5
F-0.47553692799599256
saa(lp231
(dp232
g3
F-10.4
sa(dp233
g5
F-0.5609842574272288
saa(lp234
(dp235
g3
F-10.3
sa(dp236
g5
F-0.6408264175949933
saa(lp237
(dp238
g3
F-10.2
sa(dp239
g5
F-0.7142656520272002
saa(lp240
(dp241
g3
F-10.1
sa(dp242
g5
F-0.7805681801691837
saa(lp243
(dp244
g3
F-10.0
sa(dp245
g5
F-0.8390715290764524
saa(lp246
(dp247
g3
F-9.9
sa(dp248
g5
F-0.8891911526253609
saa(lp249
(dp250
g3
F-9.8
sa(dp251
g5
F-0.9304262721047533
saa(lp252
(dp253
g3
F-9.7
sa(dp254
g5
F-0.9623648798313102
saa(lp255
(dp256
g3
F-9.6
sa(dp257
g5
F-0.984687855794127
saa(lp258
(dp259
g3
F-9.5
sa(dp260
g5
F-0.9971721561963784
saa(lp261
(dp262
g3
F-9.4
sa(dp263
g5
F-0.9996930420352065
saa(lp264
(dp265
g3
F-9.3
sa(dp266
g5
F-0.9922253254526034
saa(lp267
(dp268
g3
F-9.2
sa(dp269
g5
F-0.9748436214041636
saa(lp270
(dp271
g3
F-9.1
sa(dp272
g5
F-0.9477216021311119
saa(lp273
(dp274
g3
F-9.0
sa(dp275
g5
F-0.9111302618846769
saa(lp276
(dp277
g3
F-8.9
sa(dp278
g5
F-0.8654352092411123
saa(lp279
(dp280
g3
F-8.8
sa(dp281
g5
F-0.811093014061656
saa(lp282
(dp283
g3
F-8.7
sa(dp284
g5
F-0.7486466455973987
saa(lp285
(dp286
g3
F-8.6
sa(dp287
g5
F-0.6787200473200125
saa(lp288
(dp289
g3
F-8.5
sa(dp290
g5
F-0.6020119026848236
saa(lp291
(dp292
g3
F-8.4
sa(dp293
g5
F-0.5192886541166856
saa(lp294
(dp295
g3
F-8.3
sa(dp296
g5
F-0.4313768449706208
saa(lp297
(dp298
g3
F-8.2
sa(dp299
g5
F-0.3391548609838345
saa(lp300
(dp301
g3
F-8.1
sa(dp302
g5
F-0.2435441537357911
saa(lp303
(dp304
g3
F-8.0
sa(dp305
g5
F-0.14550003380861354
saa(lp306
(dp307
g3
F-7.9
sa(dp308
g5
F-0.04600212563953695
saa(lp309
(dp310
g3
F-7.8
sa(dp311
g5
F0.05395542056264975
saa(lp312
(dp313
g3
F-7.7
sa(dp314
g5
F0.15337386203786435
saa(lp315
(dp316
g3
F-7.6
sa(dp317
g5
F0.25125984258225575
saa(lp318
(dp319
g3
F-7.5
sa(dp320
g5
F0.3466353178350258
saa(lp321
(dp322
g3
F-7.4
sa(dp323
g5
F0.43854732757439036
saa(lp324
(dp325
g3
F-7.3
sa(dp326
g5
F0.5260775173811054
saa(lp327
(dp328
g3
F-7.2
sa(dp329
g5
F0.6083513145322546
saa(lp330
(dp331
g3
F-7.1
sa(dp332
g5
F0.6845466664428066
saa(lp333
(dp334
g3
F-7.0
sa(dp335
g5
F0.7539022543433046
saa(lp336
(dp337
g3
F-6.9
sa(dp338
g5
F0.8157251001253568
saa(lp339
(dp340
g3
F-6.8
sa(dp341
g5
F0.8693974903498253
saa(lp342
(dp343
g3
F-6.7
sa(dp344
g5
F0.9143831482353193
saa(lp345
(dp346
g3
F-6.6
sa(dp347
g5
F0.9502325919585296
saa(lp348
(dp349
g3
F-6.5
sa(dp350
g5
F0.9765876257280235
saa(lp351
(dp352
g3
F-6.4
sa(dp353
g5
F0.9931849187581926
saa(lp354
(dp355
g3
F-6.3
sa(dp356
g5
F0.9998586363834151
saa(lp357
(dp358
g3
F-6.2
sa(dp359
g5
F0.9965420970232175
saa(lp360
(dp361
g3
F-6.1
sa(dp362
g5
F0.9832684384425845
saa(lp363
(dp364
g3
F-6.0
sa(dp365
g5
F0.9601702866503661
saa(lp366
(dp367
g3
F-5.9
sa(dp368
g5
F0.9274784307440359
saa(lp369
(dp370
g3
F-5.8
sa(dp371
g5
F0.8855195169413189
saa(lp372
(dp373
g3
F-5.7
sa(dp374
g5
F0.8347127848391598
saa(lp375
(dp376
g3
F-5.6
sa(dp377
g5
F0.7755658785102496
saa(lp378
(dp379
g3
F-5.5
sa(dp380
g5
F0.70866977429126
saa(lp381
(dp382
g3
F-5.4
sa(dp383
g5
F0.6346928759426346
saa(lp384
(dp385
g3
F-5.3
sa(dp386
g5
F0.5543743361791608
saa(lp387
(dp388
g3
F-5.2
sa(dp389
g5
F0.4685166713003771
saa(lp390
(dp391
g3
F-5.1
sa(dp392
g5
F0.37797774271298024
saa(lp393
(dp394
g3
F-5.0
sa(dp395
g5
F0.2836621854632263
saa(lp396
(dp397
g3
F-4.9
sa(dp398
g5
F0.18651236942257574
saa(lp399
(dp400
g3
F-4.8
sa(dp401
g5
F0.0874989834394464
saa(lp402
(dp403
g3
F-4.7
sa(dp404
g5
F-0.01238866346289056
saa(lp405
(dp406
g3
F-4.6
sa(dp407
g5
F-0.11215252693505487
saa(lp408
(dp409
g3
F-4.5
sa(dp410
g5
F-0.21079579943077972
saa(lp411
(dp412
g3
F-4.4
sa(dp413
g5
F-0.30733286997841935
saa(lp414
(dp415
g3
F-4.3
sa(dp416
g5
F-0.40079917207997545
saa(lp417
(dp418
g3
F-4.2
sa(dp419
g5
F-0.4902608213406995
saa(lp420
(dp421
g3
F-4.1
sa(dp422
g5
F-0.5748239465332692
saa(lp423
(dp424
g3
F-4.0
sa(dp425
g5
F-0.6536436208636119
saa(lp426
(dp427
g3
F-3.9
sa(dp428
g5
F-0.7259323042001402
saa(lp429
(dp430
g3
F-3.8
sa(dp431
g5
F-0.7909677119144167
saa(lp432
(dp433
g3
F-3.7
sa(dp434
g5
F-0.848100031710408
saa(lp435
(dp436
g3
F-3.6
sa(dp437
g5
F-0.896758416334147
saa(lp438
(dp439
g3
F-3.5
sa(dp440
g5
F-0.9364566872907963
saa(lp441
(dp442
g3
F-3.4
sa(dp443
g5
F-0.9667981925794611
saa(lp444
(dp445
g3
F-3.3
sa(dp446
g5
F-0.9874797699088649
saa(lp447
(dp448
g3
F-3.2
sa(dp449
g5
F-0.9982947757947531
saa(lp450
(dp451
g3
F-3.1
sa(dp452
g5
F-0.9991351502732795
saa(lp453
(dp454
g3
F-3.0
sa(dp455
g5
F-0.9899924966004454
saa(lp456
(dp457
g3
F-2.9
sa(dp458
g5
F-0.9709581651495905
saa(lp459
(dp460
g3
F-2.8
sa(dp461
g5
F-0.9422223406686581
saa(lp462
(dp463
g3
F-2.7
sa(dp464
g5
F-0.9040721420170612
saa(lp465
(dp466
g3
F-2.6
sa(dp467
g5
F-0.8568887533689473
saa(lp468
(dp469
g3
F-2.5
sa(dp470
g5
F-0.8011436155469337
saa(lp471
(dp472
g3
F-2.4
sa(dp473
g5
F-0.7373937155412454
saa(lp474
(dp475
g3
F-2.3
sa(dp476
g5
F-0.666276021279824
saa(lp477
(dp478
g3
F-2.2
sa(dp479
g5
F-0.5885011172553458
saa(lp480
(dp481
g3
F-2.1
sa(dp482
g5
F-0.5048461045998575
saa(lp483
(dp484
g3
F-2.0
sa(dp485
g5
F-0.4161468365471424
saa(lp486
(dp487
g3
F-1.9
sa(dp488
g5
F-0.32328956686350335
saa(lp489
(dp490
g3
F-1.8
sa(dp491
g5
F-0.2272020946930871
saa(lp492
(dp493
g3
F-1.7
sa(dp494
g5
F-0.12884449429552464
saa(lp495
(dp496
g3
F-1.6
sa(dp497
g5
F-0.029199522301288815
saa(lp498
(dp499
g3
F-1.5
sa(dp500
g5
F0.0707372016677029
saa(lp501
(dp502
g3
F-1.4
sa(dp503
g5
F0.169967142900241
saa(lp504
(dp505
g3
F-1.3
sa(dp506
g5
F0.26749882862458735
saa(lp507
(dp508
g3
F-1.2
sa(dp509
g5
F0.3623577544766736
saa(lp510
(dp511
g3
F-1.1
sa(dp512
g5
F0.4535961214255773
saa(lp513
(dp514
g3
F-1.0
sa(dp515
g5
F0.5403023058681398
saa(lp516
(dp517
g3
F-0.9
sa(dp518
g5
F0.6216099682706645
saa(lp519
(dp520
g3
F-0.8
sa(dp521
g5
F0.6967067093471655
saa(lp522
(dp523
g3
F-0.7
sa(dp524
g5
F0.7648421872844885
saa(lp525
(dp526
g3
F-0.6
sa(dp527
g5
F0.8253356149096783
saa(lp528
(dp529
g3
F-0.5
sa(dp530
g5
F0.8775825618903728
saa(lp531
(dp532
g3
F-0.4
sa(dp533
g5
F0.9210609940028851
saa(lp534
(dp535
g3
F-0.3
sa(dp536
g5
F0.955336489125606
saa(lp537
(dp538
g3
F-0.2
sa(dp539
g5
F0.9800665778412416
saa(lp540
(dp541
g3
F-0.1
sa(dp542
g5
F0.9950041652780257
saa(lp543
(dp544
g3
F0.0
sa(dp545
g5
F1.0
saa(lp546
(dp547
g3
F0.1
sa(dp548
g5
F0.9950041652780257
saa(lp549
(dp550
g3
F0.2
sa(dp551
g5
F0.9800665778412416
saa(lp552
(dp553
g3
F0.3
sa(dp554
g5
F0.955336489125606
saa(lp555
(dp556
g3
F0.4
sa(dp557
g5
F0.9210609940028851
saa(lp558
(dp559
g3
F0.5
sa(dp560
g5
F0.8775825618903728
saa(lp561
(dp562
g3
F0.6
sa(dp563
g5
F0.8253356149096783
saa(lp564
(dp565
g3
F0.7
sa(dp566
g5
F0.7648421872844885
saa(lp567
(dp568
g3
F0.8
sa(dp569
g5
F0.6967067093471655
saa(lp570
(dp571
g3
F0.9
sa(dp572
g5
F0.6216099682706645
saa(lp573
(dp574
g3
F1.0
sa(dp575
g5
F0.5403023058681398
saa(lp576
(dp577
g3
F1.1
sa(dp578
g5
F0.4535961214255773
saa(lp579
(dp580
g3
F1.2
sa(dp581
g5
F0.3623577544766736
saa(lp582
(dp583
g3
F1.3
sa(dp584
g5
F0.26749882862458735
saa(lp585
(dp586
g3
F1.4
sa(dp587
g5
F0.169967142900241
saa(lp588
(dp589
g3
F1.5
sa(dp590
g5
F0.0707372016677029
saa(lp591
(dp592
g3
F1.6
sa(dp593
g5
F-0.029199522301288815
saa(lp594
(dp595
g3
F1.7
sa(dp596
g5
F-0.12884449429552464
saa(lp597
(dp598
g3
F1.8
sa(dp599
g5
F-0.2272020946930871
saa(lp600
(dp601
g3
F1.9
sa(dp602
g5
F-0.32328956686350335
saa(lp603
(dp604
g3
F2.0
sa(dp605
g5
F-0.4161468365471424
saa(lp606
(dp607
g3
F2.1
sa(dp608
g5
F-0.5048461045998575
saa(lp609
(dp610
g3
F2.2
sa(dp611
g5
F-0.5885011172553458
saa(lp612
(dp613
g3
F2.3
sa(dp614
g5
F-0.666276021279824
saa(lp615
(dp616
g3
F2.4
sa(dp617
g5
F-0.7373937155412454
saa(lp618
(dp619
g3
F2.5
sa(dp620
g5
F-0.8011436155469337
saa(lp621
(dp622
g3
F2.6
sa(dp623
g5
F-0.8568887533689473
saa(lp624
(dp625
g3
F2.7
sa(dp626
g5
F-0.9040721420170612
saa(lp627
(dp628
g3
F2.8
sa(dp629
g5
F-0.9422223406686581
saa(lp630
(dp631
g3
F2.9
sa(dp632
g5
F-0.9709581651495905
saa(lp633
(dp634
g3
F3.0
sa(dp635
g5
F-0.9899924966004454
saa(lp636
(dp637
g3
F3.1
sa(dp638
g5
F-0.9991351502732795
saa(lp639
(dp640
g3
F3.2
sa(dp641
g5
F-0.9982947757947531
saa(lp642
(dp643
g3
F3.3
sa(dp644
g5
F-0.9874797699088649
saa(lp645
(dp646
g3
F3.4
sa(dp647
g5
F-0.9667981925794611
saa(lp648
(dp649
g3
F3.5
sa(dp650
g5
F-0.9364566872907963
saa(lp651
(dp652
g3
F3.6
sa(dp653
g5
F-0.896758416334147
saa(lp654
(dp655
g3
F3.7
sa(dp656
g5
F-0.848100031710408
saa(lp657
(dp658
g3
F3.8
sa(dp659
g5
F-0.7909677119144167
saa(lp660
(dp661
g3
F3.9
sa(dp662
g5
F-0.7259323042001402
saa(lp663
(dp664
g3
F4.0
sa(dp665
g5
F-0.6536436208636119
saa(lp666
(dp667
g3
F4.1
sa(dp668
g5
F-0.5748239465332692
saa(lp669
(dp670
g3
F4.2
sa(dp671
g5
F-0.4902608213406995
saa(lp672
(dp673
g3
F4.3
sa(dp674
g5
F-0.40079917207997545
saa(lp675
(dp676
g3
F4.4
sa(dp677
g5
F-0.30733286997841935
saa(lp678
(dp679
g3
F4.5
sa(dp680
g5
F-0.21079579943077972
saa(lp681
(dp682
g3
F4.6
sa(dp683
g5
F-0.11215252693505487
saa(lp684
(dp685
g3
F4.7
sa(dp686
g5
F-0.01238866346289056
saa(lp687
(dp688
g3
F4.8
sa(dp689
g5
F0.0874989834394464
saa(lp690
(dp691
g3
F4.9
sa(dp692
g5
F0.18651236942257574
saa(lp693
(dp694
g3
F5.0
sa(dp695
g5
F0.2836621854632263
saa(lp696
(dp697
g3
F5.1
sa(dp698
g5
F0.37797774271298024
saa(lp699
(dp700
g3
F5.2
sa(dp701
g5
F0.4685166713003771
saa(lp702
(dp703
g3
F5.3
sa(dp704
g5
F0.5543743361791608
saa(lp705
(dp706
g3
F5.4
sa(dp707
g5
F0.6346928759426346
saa(lp708
(dp709
g3
F5.5
sa(dp710
g5
F0.70866977429126
saa(lp711
(dp712
g3
F5.6
sa(dp713
g5
F0.7755658785102496
saa(lp714
(dp715
g3
F5.7
sa(dp716
g5
F0.8347127848391598
saa(lp717
(dp718
g3
F5.8
sa(dp719
g5
F0.8855195169413189
saa(lp720
(dp721
g3
F5.9
sa(dp722
g5
F0.9274784307440359
saa(lp723
(dp724
g3
F6.0
sa(dp725
g5
F0.9601702866503661
saa(lp726
(dp727
g3
F6.1
sa(dp728
g5
F0.9832684384425845
saa(lp729
(dp730
g3
F6.2
sa(dp731
g5
F0.9965420970232175
saa(lp732
(dp733
g3
F6.3
sa(dp734
g5
F0.9998586363834151
saa(lp735
(dp736
g3
F6.4
sa(dp737
g5
F0.9931849187581926
saa(lp738
(dp739
g3
F6.5
sa(dp740
g5
F0.9765876257280235
saa(lp741
(dp742
g3
F6.6
sa(dp743
g5
F0.9502325919585296
saa(lp744
(dp745
g3
F6.7
sa(dp746
g5
F0.9143831482353193
saa(lp747
(dp748
g3
F6.8
sa(dp749
g5
F0.8693974903498253
saa(lp750
(dp751
g3
F6.9
sa(dp752
g5
F0.8157251001253568
saa(lp753
(dp754
g3
F7.0
sa(dp755
g5
F0.7539022543433046
saa(lp756
(dp757
g3
F7.1
sa(dp758
g5
F0.6845466664428066
saa(lp759
(dp760
g3
F7.2
sa(dp761
g5
F0.6083513145322546
saa(lp762
(dp763
g3
F7.3
sa(dp764
g5
F0.5260775173811054
saa(lp765
(dp766
g3
F7.4
sa(dp767
g5
F0.43854732757439036
saa(lp768
(dp769
g3
F7.5
sa(dp770
g5
F0.3466353178350258
saa(lp771
(dp772
g3
F7.6
sa(dp773
g5
F0.25125984258225575
saa(lp774
(dp775
g3
F7.7
sa(dp776
g5
F0.15337386203786435
saa(lp777
(dp778
g3
F7.8
sa(dp779
g5
F0.05395542056264975
saa(lp780
(dp781
g3
F7.9
sa(dp782
g5
F-0.04600212563953695
saa(lp783
(dp784
g3
F8.0
sa(dp785
g5
F-0.14550003380861354
saa(lp786
(dp787
g3
F8.1
sa(dp788
g5
F-0.2435441537357911
saa(lp789
(dp790
g3
F8.2
sa(dp791
g5
F-0.3391548609838345
saa(lp792
(dp793
g3
F8.3
sa(dp794
g5
F-0.4313768449706208
saa(lp795
(dp796
g3
F8.4
sa(dp797
g5
F-0.5192886541166856
saa(lp798
(dp799
g3
F8.5
sa(dp800
g5
F-0.6020119026848236
saa(lp801
(dp802
g3
F8.6
sa(dp803
g5
F-0.6787200473200125
saa(lp804
(dp805
g3
F8.7
sa(dp806
g5
F-0.7486466455973987
saa(lp807
(dp808
g3
F8.8
sa(dp809
g5
F-0.811093014061656
saa(lp810
(dp811
g3
F8.9
sa(dp812
g5
F-0.8654352092411123
saa(lp813
(dp814
g3
F9.0
sa(dp815
g5
F-0.9111302618846769
saa(lp816
(dp817
g3
F9.1
sa(dp818
g5
F-0.9477216021311119
saa(lp819
(dp820
g3
F9.2
sa(dp821
g5
F-0.9748436214041636
saa(lp822
(dp823
g3
F9.3
sa(dp824
g5
F-0.9922253254526034
saa(lp825
(dp826
g3
F9.4
sa(dp827
g5
F-0.9996930420352065
saa(lp828
(dp829
g3
F9.5
sa(dp830
g5
F-0.9971721561963784
saa(lp831
(dp832
g3
F9.6
sa(dp833
g5
F-0.984687855794127
saa(lp834
(dp835
g3
F9.7
sa(dp836
g5
F-0.9623648798313102
saa(lp837
(dp838
g3
F9.8
sa(dp839
g5
F-0.9304262721047533
saa(lp840
(dp841
g3
F9.9
sa(dp842
g5
F-0.8891911526253609
saa(lp843
(dp844
g3
F10.0
sa(dp845
g5
F-0.8390715290764524
saa(lp846
(dp847
g3
F10.1
sa(dp848
g5
F-0.7805681801691837
saa(lp849
(dp850
g3
F10.2
sa(dp851
g5
F-0.7142656520272002
saa(lp852
(dp853
g3
F10.3
sa(dp854
g5
F-0.6408264175949933
saa(lp855
(dp856
g3
F10.4
sa(dp857
g5
F-0.5609842574272288
saa(lp858
(dp859
g3
F10.5
sa(dp860
g5
F-0.47553692799599256
saa(lp861
(dp862
g3
F10.6
sa(dp863
g5
F-0.3853381907718297
saa(lp864
(dp865
g3
F10.7
sa(dp866
g5
F-0.29128928172134555
saa(lp867
(dp868
g3
F10.8
sa(dp869
g5
F-0.1943299064553348
saa(lp870
(dp871
g3
F10.9
sa(dp872
g5
F-0.09542885100095067
saa(lp873
(dp874
g3
F11.0
sa(dp875
g5
F0.004425697988050786
saa(lp876
(dp877
g3
F11.1
sa(dp878
g5
F0.10423602686569687
saa(lp879
(dp880
g3
F11.2
sa(dp881
g5
F0.2030048638187504
saa(lp882
(dp883
g3
F11.3
sa(dp884
g5
F0.2997453432770149
saa(lp885
(dp886
g3
F11.4
sa(dp887
g5
F0.3934908663478909
saa(lp888
(dp889
g3
F11.5
sa(dp890
g5
F0.4833047587530059
saa(lp891
(dp892
g3
F11.6
sa(dp893
g5
F0.5682896297679736
saa(lp894
(dp895
g3
F11.7
sa(dp896
g5
F0.6475963386538759
saa(lp897
(dp898
g3
F11.8
sa(dp899
g5
F0.7204324789908387
saa(lp900
(dp901
g3
F11.9
sa(dp902
g5
F0.7860702961410394
saa(lp903
(dp904
g3
F12.0
sa(dp905
g5
F0.8438539587324921
saa(lp906
(dp907
g3
F12.1
sa(dp908
g5
F0.8932061115093225
saa(lp909
(dp910
g3
F12.2
sa(dp911
g5
F0.9336336440746373
saa(lp912
(dp913
g3
F12.3
sa(dp914
g5
F0.9647326178866098
saa(lp915
(dp916
g3
F12.4
sa(dp917
g5
F0.9861923022788637
saa(lp918
(dp919
g3
F12.5
sa(dp920
g5
F0.9977982791785807
saa(lp921
(dp922
g3
F12.6
sa(dp923
g5
F0.9994345855010047
saa(lp924
(dp925
g3
F12.7
sa(dp926
g5
F0.9910848718142533
saa(lp927
(dp928
g3
F12.8
sa(dp929
g5
F0.9728325656974354
saa(lp930
(dp931
g3
F12.9
sa(dp932
g5
F0.9448600381598606
saa(lp933
(dp934
g3
F13.0
sa(dp935
g5
F0.9074467814501962
saa(lp936
(dp937
g3
F13.1
sa(dp938
g5
F0.8609666164623064
saa(lp939
(dp940
g3
F13.2
sa(dp941
g5
F0.8058839576404507
saa(lp942
(dp943
g3
F13.3
sa(dp944
g5
F0.7427491727036695
saa(lp945
(dp946
g3
F13.4
sa(dp947
g5
F0.6721930835534681
saa(lp948
(dp949
g3
F13.5
sa(dp950
g5
F0.594920663309892
saa(lp951
(dp952
g3
F13.6
sa(dp953
g5
F0.511703992453149
saa(lp954
(dp955
g3
F13.7
sa(dp956
g5
F0.42337454445066547
saa(lp957
(dp958
g3
F13.8
sa(dp959
g5
F0.33081487794904696
saa(lp960
(dp961
g3
F13.9
sa(dp962
g5
F0.23494981853982308
saa(lp963
(dp964
g3
F14.0
sa(dp965
g5
F0.1367372182078336
saa(lp966
(dp967
g3
F14.1
sa(dp968
g5
F0.0371583847908264
saa(lp969
(dp970
g3
F14.2
sa(dp971
g5
F-0.06279172292408176
saa(lp972
(dp973
g3
F14.3
sa(dp974
g5
F-0.16211443649971827
saa(lp975
(dp976
g3
F14.4
sa(dp977
g5
F-0.25981735621375585
saa(lp978
(dp979
g3
F14.5
sa(dp980
g5
F-0.354924266788705
saa(lp981
(dp982
g3
F14.6
sa(dp983
g5
F-0.4464848914122656
saa(lp984
(dp985
g3
F14.7
sa(dp986
g5
F-0.5335843865891177
saa(lp987
(dp988
g3
F14.8
sa(dp989
g5
F-0.6153524829547208
saa(lp990
(dp991
g3
F14.9
sa(dp992
g5
F-0.6909721807191258
saa(lp993
(dp994
g3
F15.0
sa(dp995
g5
F-0.7596879128588212
saa(lp996
(dp997
g3
F15.1
sa(dp998
g5
F-0.8208130944926683
saa(lp999
(dp1000
g3
F15.2
sa(dp1001
g5
F-0.8737369830110802
saa(lp1002
(dp1003
g3
F15.3
sa(dp1004
g5
F-0.9179307804142933
saa(lp1005
(dp1006
g3
F15.4
sa(dp1007
g5
F-0.9529529168871803
saa(lp1008
(dp1009
g3
F15.5
sa(dp1010
g5
F-0.9784534628188842
saa(lp1011
(dp1012
g3
F15.6
sa(dp1013
g5
F-0.9941776251838151
saa(lp1014
(dp1015
g3
F15.7
sa(dp1016
g5
F-0.9999682933493399
saa(lp1017
(dp1018
g3
F15.8
sa(dp1019
g5
F-0.9957676088732885
saa(lp1020
(dp1021
g3
F15.9
sa(dp1022
g5
F-0.9816175436063844
saa(lp1023
(dp1024
g3
F16.0
sa(dp1025
g5
F-0.9576594803233847
saa(lp1026
(dp1027
g3
F16.1
sa(dp1028
g5
F-0.9241328000731296
saa(lp1029
(dp1030
g3
F16.2
sa(dp1031
g5
F-0.8813724903622346
saa(lp1032
(dp1033
g3
F16.3
sa(dp1034
g5
F-0.829805798070649
saa(lp1035
(dp1036
g3
F16.4
sa(dp1037
g5
F-0.7699479605420718
saa(lp1038
(dp1039
g3
F16.5
sa(dp1040
g5
F-0.7023970575027135
saa(lp1041
(dp1042
g3
F16.6
sa(dp1043
g5
F-0.627828035246386
saa(lp1044
(dp1045
g3
F16.7
sa(dp1046
g5
F-0.5469859627942356
saa(lp1047
(dp1048
g3
F16.8
sa(dp1049
g5
F-0.46067858741136253
saa(lp1050
(dp1051
g3
F16.9
sa(dp1052
g5
F-0.36976826386317313
saa(lp1053
(dp1054
g3
F17.0
sa(dp1055
g5
F-0.27516333805159693
saa(lp1056
(dp1057
g3
F17.1
sa(dp1058
g5
F-0.17780907112311564
saa(lp1059
(dp1060
g3
F17.2
sa(dp1061
g5
F-0.07867819473184015
saa(lp1062
(dp1063
g3
F17.3
sa(dp1064
g5
F0.021238808173646012
saa(lp1065
(dp1066
g3
F17.4
sa(dp1067
g5
F0.12094359992847413
saa(lp1068
(dp1069
g3
F17.5
sa(dp1070
g5
F0.21943996321145934
saa(lp1071
(dp1072
g3
F17.6
sa(dp1073
g5
F0.31574375491924334
saa(lp1074
(dp1075
g3
F17.7
sa(dp1076
g5
F0.4088927393988798
saa(lp1077
(dp1078
g3
F17.8
sa(dp1079
g5
F0.49795620278841546
saa(lp1080
(dp1081
g3
F17.9
sa(dp1082
g5
F0.5820442524021224
saa.