(iNet
Net
p0
(dp1
S'pattern_error'
p2
F0.40647544986581685
sS'last_sample_error'
p3
F0.22035305996060794
sS'epoch'
p4
I25200000
sS'layers_list'
p5
(lp6
S'Hidden layer 0'
p7
aS'Hidden layer 1'
p8
asS'hidden_layers_total'
p9
I2
sS'out_layers'
p10
c__builtin__
set
p11
(((iLayer
Layer
p12
(dp13
S'neurons'
p14
g11
(((iNeuron
Neuron
p15
(dp16
S'bias_flag'
p17
I00
sS'output_delta'
p18
F-0.14291732719736602
sS'error'
p19
F-0.22035305996060794
sS'signal'
p20
F-0.6035310199961902
sS'owner'
p21
g12
sS'prev_change'
p22
(dp23
S'hidden_10'
p24
F-0.14291543379927266
sS'hidden_11'
p25
F-0.14291732719736602
sS'hidden_12'
p26
F-0.14283720378995943
sS'hidden_13'
p27
F-0.1429172074428074
sS'hidden_14'
p28
F-0.14290217851377762
sS'hidden_15'
p29
F0.14180861804623454
sS'hidden_16'
p30
F-0.1429173271973631
ssS'weights'
p31
(dp32
g24
F-1.0643810266378446
sg25
F-1.2050771084770144
sg26
F-2.7205376134423616
sg27
F1.3202227124426094
sg28
F2.9806628295683355
sg29
F1.9154597467151215
sg30
F1.8898201705648807
ssS'outputs'
p33
g11
((ttp34
Rp35
sS'inputs'
p36
g11
(((iNeuron
Neuron
p37
(dp38
g17
I00
sg18
F4.030567313844186e-06
sg19
F0.1521184914466692
sg20
F0.999986751807205
sg21
(iLayer
Layer
p39
(dp40
g14
g11
((g37
(iNeuron
Neuron
p41
(dp42
g17
I00
sg18
F0.0
sg19
F0.1722263994102652
sg20
F1.0
sg21
g39
sg22
(dp43
S'hidden_00'
p44
F-0.0
sS'hidden_01'
p45
F0.0
sS'hidden_02'
p46
F0.0
sS'hidden_03'
p47
F0.0
sS'hidden_04'
p48
F-0.0
sS'hidden_05'
p49
F-0.0
sS'hidden_06'
p50
F0.0
ssg31
(dp51
g44
F5.195263552793048
sg45
F0.9304866798948277
sg46
F5.199710781822056
sg47
F5.518432236087891
sg48
F-4.815885831109206
sg49
F-4.502230465794202
sg50
F4.183936840975565
ssg33
g11
((g15
tp52
tp53
Rp54
sg36
g11
(((iNeuron
Neuron
p55
(dp56
g17
I00
sg18
F-1.1357181501176139e-08
sg19
F-0.01364829003289938
sg20
F-0.9999995839338675
sg21
(iLayer
Layer
p57
(dp58
g14
g11
((g55
(iNeuron
Neuron
p59
(dp60
g17
I00
sg18
F2.1847963922367318e-11
sg19
F0.015063387223109004
sg20
F0.9999999992747991
sg21
g57
sg22
(dp61
S'INB'
p62
F2.1847963922367318e-11
sS'input_0'
p63
F3.9107855421037497e-10
ssg31
(dp64
g62
F6.185565192996026
sg63
F0.2616365704333266
ssg33
g11
((g37
g41
(iNeuron
Neuron
p65
(dp66
g17
I00
sg18
F0.00043583528221964276
sg19
F0.3888119642530833
sg20
F0.9994394295031406
sg21
g39
sg22
(dp67
g44
F-0.00043583510088332066
sg45
F0.0004358352819035746
sg46
F0.0004357766406609762
sg47
F0.00043583527563627057
sg48
F-0.00043583528221964276
sg49
F-0.00043583528221964276
sg50
F0.0004358352822196424
ssg31
(dp68
g44
F3.088621962571413
sg45
F0.3503533413237007
sg46
F1.7410677333953692
sg47
F3.265611733237705
sg48
F0.26731547884765444
sg49
F-4.54427644547171
sg50
F-2.4554275862019748
ssg33
g11
((g15
tp69
tp70
Rp71
sg36
g11
((g55
g59
(iNeuron
Neuron
p72
(dp73
g17
I00
sg18
F5.050302759081663e-07
sg19
F0.0018768670778273918
sg20
F0.9998654509101038
sg21
g57
sg22
(dp74
g62
F5.050302759081663e-07
sg63
F9.040041938756177e-06
ssg31
(dp75
g62
F4.422707038129905
sg63
F0.021263890289465192
ssg33
g11
((g37
g41
g65
(iNeuron
Neuron
p76
(dp77
g17
I00
sg18
F-3.162052439343609e-07
sg19
F-0.18868270136755447
sg20
F0.9999991620710426
sg21
g39
sg22
(dp78
g44
F3.1620511237205213e-07
sg45
F-3.1620524370504857e-07
sg46
F-3.161626985757832e-07
sg47
F-3.1620523915802245e-07
sg48
F3.162052439343609e-07
sg49
F3.162052439343609e-07
sg50
F-3.162052439343606e-07
ssg31
(dp79
g44
F5.853842134368092
sg45
F0.6571850074653699
sg46
F2.948239326751201
sg47
F6.046244833289498
sg48
F-5.952364173933981
sg49
F-0.14138277751858006
sg50
F-2.5484400064344963
ssg33
g11
((g15
tp80
tp81
Rp82
sg36
g11
((g55
g59
g72
(iNeuron
Neuron
p83
(dp84
g17
I00
sg18
F-3.5826367993080036e-10
sg19
F-0.011858964449178836
sg20
F0.9999999848948159
sg21
g57
sg22
(dp85
g62
F-3.5826367993080036e-10
sg63
F-6.412919870761326e-09
ssg31
(dp86
g62
F-2.005445700334911
sg63
F0.6344208493204666
ssg33
g11
((g37
g41
g65
g76
(iNeuron
Neuron
p87
(dp88
g17
I00
sg18
F-9.030145012189438e-05
sg19
F-0.42598836487844466
sg20
F0.9998940016290884
sg21
g39
sg22
(dp89
g44
F9.030141255051475e-05
sg45
F-9.030145005640768e-05
sg46
F-9.028930007805664e-05
sg47
F-9.030144875787434e-05
sg48
F9.030145012189438e-05
sg49
F9.030145012189438e-05
sg50
F-9.03014501218943e-05
ssg31
(dp90
g44
F-1.4609711155784615
sg45
F4.504082003416979
sg46
F2.98912594660483
sg47
F-1.9614404915830443
sg48
F2.9754830775730707
sg49
F-0.5477944571609271
sg50
F0.3579433184188865
ssg33
g11
((g15
tp91
tp92
Rp93
sg36
g11
((g55
g59
g72
g83
(iNeuron
Neuron
p94
(dp95
g17
I00
sg18
F0.0
sg19
F0.0024381993646600854
sg20
F-1.0
sg21
g57
sg22
(dp96
g62
F0.0
sg63
F0.0
ssg31
(dp97
g62
F-5.932785324122649
sg63
F-1.3665591926803455
ssg33
g11
((g37
g41
g65
g76
g87
(iNeuron
Neuron
p98
(dp99
g17
I00
sg18
F-0.004230900576044406
sg19
F-0.2737523873546689
sg20
F-0.9922499547144917
sg21
g39
sg22
(dp100
g44
F0.004230898815709754
sg45
F-0.004230900572976153
sg46
F-0.0042303313091344875
sg47
F-0.004230900512135874
sg48
F0.004230900576044406
sg49
F0.004230900576044406
sg50
F-0.004230900576044402
ssg31
(dp101
g44
F3.573921447740646
sg45
F-3.615138450875929
sg46
F-0.32692169078593014
sg47
F3.1800735959562587
sg48
F-0.6100175492669541
sg49
F-1.3741105667056641
sg50
F-0.4229261625698409
ssg33
g11
((g15
tp102
tp103
Rp104
sg36
g11
((g55
g59
g72
g83
g94
(iNeuron
Neuron
p105
(dp106
g17
I00
sg18
F0.0
sg19
F0.003887940001970155
sg20
F-1.0
sg21
g57
sg22
(dp107
g62
F0.0
sg63
F0.0
ssg31
(dp108
g62
F-3.119156378108884
sg63
F-1.923930132448204
ssg33
g11
((g37
g41
g65
g76
g87
g98
(iNeuron
Neuron
p109
(dp110
g17
I00
sg18
F-1.1034773266158155e-14
sg19
F-0.27008804766080313
sg20
F0.9999999999999796
sg21
g39
sg22
(dp111
g44
F1.1034768674962167e-14
sg45
F-1.1034773258155727e-14
sg46
F-1.103328853940413e-14
sg47
F-1.1034773099475873e-14
sg48
F1.1034773266158155e-14
sg49
F1.1034773266158155e-14
sg50
F-1.1034773266158145e-14
ssg31
(dp112
g44
F-0.7745571925672854
sg45
F1.4330490651918364
sg46
F-5.093225140214669
sg47
F8.219226519331727
sg48
F-2.737003159825685
sg49
F-6.854060939935333
sg50
F1.1820920222472482
ssg33
g11
((g15
tp113
tp114
Rp115
sg36
g11
((g55
g59
g72
g83
g94
g105
(iNeuron
Neuron
p116
(dp117
g17
I00
sg18
F1.235925315419087e-18
sg19
F0.0006957640987473953
sg20
F0.9999999999999991
sg21
g57
sg22
(dp118
g62
F1.235925315419087e-18
sg63
F2.2123063146001655e-17
ssg31
(dp119
g62
F14.285763773042373
sg63
F0.18851966859463287
ssg33
g11
((g37
g41
g65
g76
g87
g98
g109
tp120
tp121
Rp122
sg36
g11
(((iNeuron
Neuron
p123
(dp124
g17
I01
sg18
F0.0
sg19
F0.0
sg20
F1.0
sg21
(iLayer
Layer
p125
(dp126
g14
g11
((g123
(iNeuron
Neuron
p127
(dp128
g17
I00
sg18
F0.0
sg19
F0.0
sg20
F17.9
sg21
g125
sg22
(dp129
sg31
(dp130
sg33
g11
((g55
g59
g72
g83
g94
g105
g116
tp131
tp132
Rp133
sg36
g11
((ttp134
Rp135
sS'hash'
p136
g63
sS'name'
p137
S'0'
p138
sbtp139
tp140
Rp141
sg21
g0
sS'neurons_total'
p142
I2
sg137
S'Input layer'
p143
sS'position'
p144
Nsbsg22
(dp145
sg31
(dp146
sg33
g11
((g55
g59
g72
g83
g94
g105
g116
tp147
tp148
Rp149
sg36
g11
((ttp150
Rp151
sg136
g62
sg137
S'Bias'
p152
sbg127
tp153
tp154
Rp155
sg136
g50
sg137
S'6'
p156
sbtp157
tp158
Rp159
sg136
g30
sg137
g156
sbtp160
tp161
Rp162
sg36
g11
((g123
g127
tp163
tp164
Rp165
sg136
g49
sg137
S'5'
p166
sbg116
tp167
tp168
Rp169
sg136
g29
sg137
g166
sbg109
tp170
tp171
Rp172
sg36
g11
((g123
g127
tp173
tp174
Rp175
sg136
g48
sg137
S'4'
p176
sbg105
g116
tp177
tp178
Rp179
sg136
g28
sg137
g176
sbg98
g109
tp180
tp181
Rp182
sg36
g11
((g123
g127
tp183
tp184
Rp185
sg136
g47
sg137
S'3'
p186
sbg94
g105
g116
tp187
tp188
Rp189
sg136
g27
sg137
g186
sbg87
g98
g109
tp190
tp191
Rp192
sg36
g11
((g123
g127
tp193
tp194
Rp195
sg136
g46
sg137
S'2'
p196
sbg83
g94
g105
g116
tp197
tp198
Rp199
sg136
g26
sg137
g196
sbg76
g87
g98
g109
tp200
tp201
Rp202
sg36
g11
((g123
g127
tp203
tp204
Rp205
sg136
g45
sg137
S'1'
p206
sbg72
g83
g94
g105
g116
tp207
tp208
Rp209
sg21
g0
sg142
I7
sg137
g7
sg144
I0
sbsg22
(dp210
g62
F-1.1357181501176139e-08
sg63
F-2.0329354887105286e-07
ssg31
(dp211
g62
F-10.890440954487651
sg63
F0.17864003686242486
ssg33
g11
((g37
g41
g65
g76
g87
g98
g109
tp212
tp213
Rp214
sg36
g11
((g123
g127
tp215
tp216
Rp217
sg136
g44
sg137
g138
sbg59
g72
g83
g94
g105
g116
tp218
tp219
Rp220
sg136
g25
sg137
g206
sbg65
g76
g87
g98
g109
tp221
tp222
Rp223
sg21
g0
sg142
I7
sg137
g8
sg144
I1
sbsg22
(dp224
g44
F-4.030565636861431e-06
sg45
F4.0305673109212155e-06
sg46
F4.030025001738589e-06
sg47
F4.030567252961725e-06
sg48
F-4.030567313844186e-06
sg49
F-4.030567313844186e-06
sg50
F4.030567313844183e-06
ssg31
(dp225
g44
F-0.8909267889462708
sg45
F5.5407741452494195
sg46
F1.4215907638881364
sg47
F-0.7113435009843969
sg48
F1.8802600815656192
sg49
F1.304898425334335
sg50
F2.005796929552974
ssg33
g11
((g15
tp226
tp227
Rp228
sg36
g11
((g55
g59
g72
g83
g94
g105
g116
tp229
tp230
Rp231
sg136
g24
sg137
g138
sbg41
g65
g76
g87
g98
g109
tp232
tp233
Rp234
sg136
S'output_0'
p235
sg137
g138
sbtp236
tp237
Rp238
sg21
g0
sg142
I1
sg137
S'Output layer'
p239
sg144
Nsbtp240
tp241
Rp242
sS'layers'
p243
g11
((g57
g39
tp244
tp245
Rp246
sS'inp_layers'
p247
g11
((g125
tp248
tp249
Rp250
sb.