(iNet
Net
p0
(dp1
S'inp_layers'
p2
c__builtin__
set
p3
(((iLayer
Layer
p4
(dp5
S'position'
p6
NsS'name'
p7
S'Input layer'
p8
sS'neurons_total'
p9
I2
sS'owner'
p10
g0
sS'neurons'
p11
g3
(((iNeuron
Neuron
p12
(dp13
g7
S'Bias'
p14
sS'hash'
p15
S'INB'
p16
sS'inputs'
p17
g3
((ttp18
Rp19
sS'outputs'
p20
g3
(((iNeuron
Neuron
p21
(dp22
g7
S'0'
p23
sg15
S'hidden_00'
p24
sg17
g3
((g12
(iNeuron
Neuron
p25
(dp26
g7
g23
sg15
S'input_0'
p27
sg17
g3
((ttp28
Rp29
sg20
g3
((g21
(iNeuron
Neuron
p30
(dp31
g7
S'1'
p32
sg15
S'hidden_01'
p33
sg17
g3
((g12
g25
tp34
tp35
Rp36
sg20
g3
(((iNeuron
Neuron
p37
(dp38
g7
g23
sg15
S'hidden_10'
p39
sg17
g3
((g21
g30
(iNeuron
Neuron
p40
(dp41
g7
S'2'
p42
sg15
S'hidden_02'
p43
sg17
g3
((g12
g25
tp44
tp45
Rp46
sg20
g3
((g37
(iNeuron
Neuron
p47
(dp48
g7
g32
sg15
S'hidden_11'
p49
sg17
g3
((g21
g30
g40
(iNeuron
Neuron
p50
(dp51
g7
S'3'
p52
sg15
S'hidden_03'
p53
sg17
g3
((g12
g25
tp54
tp55
Rp56
sg20
g3
((g37
g47
(iNeuron
Neuron
p57
(dp58
g7
g42
sg15
S'hidden_12'
p59
sg17
g3
((g21
g30
g40
g50
(iNeuron
Neuron
p60
(dp61
g7
S'4'
p62
sg15
S'hidden_04'
p63
sg17
g3
((g12
g25
tp64
tp65
Rp66
sg20
g3
((g37
g47
g57
(iNeuron
Neuron
p67
(dp68
g7
g52
sg15
S'hidden_13'
p69
sg17
g3
((g21
g30
g40
g50
g60
(iNeuron
Neuron
p70
(dp71
g7
S'5'
p72
sg15
S'hidden_05'
p73
sg17
g3
((g12
g25
tp74
tp75
Rp76
sg20
g3
((g37
g47
g57
g67
(iNeuron
Neuron
p77
(dp78
g7
g62
sg15
S'hidden_14'
p79
sg17
g3
((g21
g30
g40
g50
g60
g70
(iNeuron
Neuron
p80
(dp81
g7
S'6'
p82
sg15
S'hidden_06'
p83
sg17
g3
((g12
g25
tp84
tp85
Rp86
sg20
g3
((g37
g47
g57
g67
g77
(iNeuron
Neuron
p87
(dp88
g7
g72
sg15
S'hidden_15'
p89
sg17
g3
((g21
g30
g40
g50
g60
g70
g80
tp90
tp91
Rp92
sg20
g3
(((iNeuron
Neuron
p93
(dp94
g7
g23
sg15
S'output_0'
p95
sg17
g3
((g37
g47
g57
g67
g77
g87
(iNeuron
Neuron
p96
(dp97
g7
g82
sg15
S'hidden_16'
p98
sg17
g3
((g21
g30
g40
g50
g60
g70
g80
tp99
tp100
Rp101
sg20
g3
((g93
tp102
tp103
Rp104
sS'weights'
p105
(dp106
g24
F0.1391959804880491
sg33
F1.0318303189152127
sg43
F-0.2708191376425757
sg53
F0.41558500334349785
sg63
F-0.40809794422551127
sg73
F-2.5295435312432026
sg83
F0.8017611983653082
ssS'prev_change'
p107
(dp108
g24
F-0.0003714185526568673
sg33
F-0.0003714185543440424
sg43
F0.00037141855434404277
sg53
F-0.0003714177793442433
sg63
F-0.0003714184195155343
sg73
F0.0003714185543440429
sg83
F-0.000371418554344043
ssg10
(iLayer
Layer
p109
(dp110
g6
I1
sg7
S'Hidden layer 1'
p111
sg9
I7
sg10
g0
sg11
g3
((g37
g47
g57
g67
g77
g87
g96
tp112
tp113
Rp114
sbsS'signal'
p115
F0.9998592036773772
sS'error'
p116
F-1.319186326939734
sS'output_delta'
p117
F-0.000371418554344043
sS'bias_flag'
p118
I00
sbtp119
tp120
Rp121
sg20
g3
((ttp122
Rp123
sg105
(dp124
g39
F1.9185578027491843
sg49
F1.3775971956052004
sg59
F1.8111725382459392
sg69
F-4.007184999074199
sg79
F0.8213480634924323
sg89
F4.481792352519903
sg98
F-1.6970907014294665
ssg107
(dp125
g39
F-0.7773210573426187
sg49
F0.7773182087523646
sg59
F0.7772960027639398
sg69
F-0.777322228350872
sg79
F0.68989363128077
sg89
F-0.7773222290044212
sg98
F0.7772127933280479
ssg10
(iLayer
Layer
p126
(dp127
g6
Nsg7
S'Output layer'
p128
sg9
I1
sg10
g0
sg11
g3
((g93
tp129
tp130
Rp131
sbsg115
F-0.16831608364493417
sg116
F0.8268971415564972
sg117
F0.7773222290526829
sg118
I00
sbtp132
tp133
Rp134
sg105
(dp135
g24
F-6.128854920078525
sg33
F0.45282046904443035
sg43
F5.912880479672479
sg53
F-1.7852035167617866
sg63
F-0.7953385645841228
sg73
F-1.8190965118145401
sg83
F0.2525415928072563
ssg107
(dp136
g24
F4.32597773491355e-10
sg33
F4.3259777545643774e-10
sg43
F-4.325977754564382e-10
sg53
F4.325968728004311e-10
sg63
F4.325976184192839e-10
sg73
F-4.3259777545643836e-10
sg83
F4.3259777545643847e-10
ssg10
g109
sg115
F-0.9999999999379129
sg116
F3.4837968216120383
sg117
F4.3259777545643847e-10
sg118
I00
sbg96
tp137
tp138
Rp139
sg105
(dp140
g16
F4.167837581026382
sg27
F1.7726236111139066
ssg107
(dp141
g16
F0.0
sg27
F0.0
ssg10
(iLayer
Layer
p142
(dp143
g6
I0
sg7
S'Hidden layer 0'
p144
sg9
I7
sg10
g0
sg11
g3
((g21
g30
g40
g50
g60
g70
g80
tp145
tp146
Rp147
sbsg115
F1.0
sg116
F0.01378703670892107
sg117
F0.0
sg118
I00
sbtp148
tp149
Rp150
sg20
g3
((g93
tp151
tp152
Rp153
sg105
(dp154
g24
F2.0851647926950054
sg33
F-1.2807885566590578
sg43
F-4.207680445879345
sg53
F-1.587917777557239
sg63
F-2.182274567989961
sg73
F-0.07881816974914026
sg83
F0.10346672224338684
ssg107
(dp155
g24
F0.13554193275726048
sg33
F0.135541933372962
sg43
F-0.13554193337296214
sg53
F0.13554165055195075
sg63
F0.13554188416993634
sg73
F-0.1355419333729622
sg83
F0.13554193337296222
ssg10
g109
sg115
F0.8904621705576348
sg116
F0.638452107542042
sg117
F0.13554193337296222
sg118
I00
sbg87
g96
tp156
tp157
Rp158
sg105
(dp159
g16
F0.2730144303166874
sg27
F-1.0461580511591764
ssg107
(dp160
g16
F-4.311516605186962e-18
sg27
F-7.717614723284662e-17
ssg10
g142
sg115
F-0.9999999999999998
sg116
F-0.009708672288260854
sg117
F-4.311516605186962e-18
sg118
I00
sbg80
tp161
tp162
Rp163
sg20
g3
((g93
tp164
tp165
Rp166
sg105
(dp167
g24
F-5.659785905981655
sg33
F-2.0952933566532015
sg43
F0.3992096026862529
sg53
F-0.6583343425514677
sg63
F0.7811803099731512
sg73
F0.7160890492964052
sg83
F-2.0117711794137403
ssg107
(dp168
g24
F-5.624572283127851e-09
sg33
F-5.6245723086775656e-09
sg43
F5.624572308677571e-09
sg53
F-5.624560572477642e-09
sg63
F-5.6245702669037115e-09
sg73
F5.624572308677573e-09
sg83
F-5.624572308677575e-09
ssg10
g109
sg115
F-0.9999999990971429
sg116
F-3.1148739757068293
sg117
F-5.624572308677575e-09
sg118
I00
sbg77
g87
g96
tp169
tp170
Rp171
sg105
(dp172
g16
F-3.6995748431135294
sg27
F0.6402550575959101
ssg107
(dp173
g16
F-2.1455315349750269e-07
sg27
F-3.840501447605298e-06
ssg10
g142
sg115
F0.9999996369896086
sg116
F-0.29551998066622204
sg117
F-2.1455315349750269e-07
sg118
I00
sbg70
g80
tp174
tp175
Rp176
sg20
g3
((g93
tp177
tp178
Rp179
sg105
(dp180
g24
F0.38325129572219724
sg33
F1.4381329563617125
sg43
F-0.6756443556523352
sg53
F1.8332650573844824
sg63
F1.1690976728435196
sg73
F0.4671078281412404
sg83
F0.46271963633251717
ssg107
(dp181
g24
F9.499906484470956e-05
sg33
F9.499906527624441e-05
sg43
F-9.499906527624452e-05
sg53
F9.499886705174637e-05
sg63
F9.499903079066988e-05
sg73
F-9.499906527624455e-05
sg83
F9.499906527624458e-05
ssg10
g109
sg115
F0.9999662613832258
sg116
F1.407864674628339
sg117
F9.499906527624458e-05
sg118
I00
sbg67
g77
g87
g96
tp182
tp183
Rp184
sg105
(dp185
g16
F-4.4467335484899735
sg27
F0.6331447415602258
ssg107
(dp186
g16
F-8.981663637208285e-07
sg27
F-1.607717791060283e-05
ssg10
g142
sg115
F0.9999979133872774
sg116
F-0.2152232816988959
sg117
F-8.981663637208285e-07
sg118
I00
sbg60
g70
g80
tp187
tp188
Rp189
sg20
g3
((g93
tp190
tp191
Rp192
sg105
(dp193
g24
F1.1917907416557132
sg33
F0.5991386435244009
sg43
F-0.935189798257628
sg53
F-0.5898263222001047
sg63
F0.8416441355748487
sg73
F-1.6946577713170066
sg83
F1.760104570031565
ssg107
(dp194
g24
F1.1076680193359535e-05
sg33
F1.1076680243675542e-05
sg43
F-1.1076680243675553e-05
sg53
F1.1076657131138855e-05
sg63
F1.1076676222734062e-05
sg73
F-1.1076680243675559e-05
sg83
F1.107668024367556e-05
ssg10
g109
sg115
F0.9999948280249512
sg116
F1.0708369228245591
sg117
F1.107668024367556e-05
sg118
I00
sbg57
g67
g77
g87
g96
tp195
tp196
Rp197
sg105
(dp198
g16
F-4.7865142097215285
sg27
F-0.7354460341130902
ssg107
(dp199
g16
F-6.331469618871247e-16
sg27
F-1.133333061777953e-14
ssg10
g142
sg115
F-0.9999999999999994
sg116
F-0.5702880843251232
sg117
F-6.331469618871247e-16
sg118
I00
sbg50
g60
g70
g80
tp200
tp201
Rp202
sg20
g3
((g93
tp203
tp204
Rp205
sg105
(dp206
g24
F-0.5864957813442655
sg33
F-1.026226803124135
sg43
F0.6706297778703436
sg53
F-1.5810089312058866
sg63
F-0.4943945833394406
sg73
F2.0855531581162063
sg83
F-0.6048401845551092
ssg107
(dp207
g24
F4.495983563222023e-06
sg33
F4.495983583645105e-06
sg43
F-4.49598358364511e-06
sg53
F4.495974202351863e-06
sg63
F4.495981951559815e-06
sg73
F-4.495983583645111e-06
sg83
F4.495983583645112e-06
ssg10
g109
sg115
F-0.9999984926313604
sg116
F1.4913376277994135
sg117
F4.495983583645112e-06
sg118
I00
sbg47
g57
g67
g77
g87
g96
tp208
tp209
Rp210
sg105
(dp211
g16
F-3.463519312929004
sg27
F1.1626229921297724
ssg107
(dp212
g16
F-5.790206391053637e-16
sg27
F-1.0364469439986008e-14
ssg10
g142
sg115
F0.9999999999999983
sg116
F-0.17384514230098283
sg117
F-5.790206391053637e-16
sg118
I00
sbg40
g50
g60
g70
g80
tp213
tp214
Rp215
sg105
(dp216
sg107
(dp217
sg10
g4
sg115
F17.9
sg116
F0.0
sg117
F0.0
sg118
I00
sbtp218
tp219
Rp220
sg20
g3
((g37
g47
g57
g67
g77
g87
g96
tp221
tp222
Rp223
sg105
(dp224
g16
F-14.388290842666157
sg27
F1.3597629364976285
ssg107
(dp225
g16
F2.5676365466922964e-09
sg27
F4.59606941857921e-08
ssg10
g142
sg115
F0.9999999954574816
sg116
F0.2826225693402331
sg117
F2.5676365466922964e-09
sg118
I00
sbg30
g40
g50
g60
g70
g80
tp226
tp227
Rp228
sg105
(dp229
sg107
(dp230
sg10
g4
sg115
F1.0
sg116
F0.0
sg117
F0.0
sg118
I01
sbg25
tp231
tp232
Rp233
sbtp234
tp235
Rp236
sS'layers'
p237
g3
((g142
g109
tp238
tp239
Rp240
sS'out_layers'
p241
g3
((g126
tp242
tp243
Rp244
sS'hidden_layers_total'
p245
I2
sS'layers_list'
p246
(lp247
g144
ag111
asS'epoch'
p248
I14400000
sS'last_sample_error'
p249
F0.8268971415564972
sS'pattern_error'
p250
F0.2385031711988833
sS'pattern_out_result'
p251
(lp252
(dp253
g95
F0.16831682388050848
sa(dp254
g95
F0.16831683393247912
sa(dp255
g95
F0.1683168455772585
sa(dp256
g95
F0.16831685906724117
sa(dp257
g95
F0.1683168746948115
sa(dp258
g95
F0.16831689279868736
sa(dp259
g95
F0.16831691377125937
sa(dp260
g95
F0.16831693806709344
sa(dp261
g95
F0.16831696621278486
sa(dp262
g95
F0.1683169988183789
sa(dp263
g95
F0.16831703659057828
sa(dp264
g95
F0.16831708034807497
sa(dp265
g95
F0.16831713103928841
sa(dp266
g95
F0.16831718976292537
sa(dp267
g95
F0.16831725779179021
sa(dp268
g95
F0.16831733660037693
sa(dp269
g95
F0.1683174278968321
sa(dp270
g95
F0.16831753365997085
sa(dp271
g95
F0.16831765618217803
sa(dp272
g95
F0.16831779811909464
sa(dp273
g95
F0.16831796254717907
sa(dp274
g95
F0.1683181530303999
sa(dp275
g95
F0.16831837369748762
sa(dp276
g95
F0.1683186293314367
sa(dp277
g95
F0.16831892547318864
sa(dp278
g95
F0.16831926854175158
sa(dp279
g95
F0.16831966597335923
sa(dp280
g95
F0.16832012638268792
sa(dp281
g95
F0.16832065974962207
sa(dp282
g95
F0.16832127763564458
sa(dp283
g95
F0.16832199343451681
sa(dp284
g95
F0.16832282266271414
sa(dp285
g95
F0.168323783295908
sa(dp286
g95
F0.16832489615882867
sa(dp287
g95
F0.16832618537693722
sa(dp288
g95
F0.16832767889976175
sa(dp289
g95
F0.16832940910727065
sa(dp290
g95
F0.16833141351245695
sa(dp291
g95
F0.16833373557545914
sa(dp292
g95
F0.16833642564692441
sa(dp293
g95
F0.16833954206121704
sa(dp294
g95
F0.16834315240329306
sa(dp295
g95
F0.16834733497696117
sa(dp296
g95
F0.16835218050661063
sa(dp297
g95
F0.16835779410971566
sa(dp298
g95
F0.16836429758338586
sa(dp299
g95
F0.16837183205525338
sa(dp300
g95
F0.16838056105709484
sa(dp301
g95
F0.16839067408910616
sa(dp302
g95
F0.16840239075383304
sa(dp303
g95
F0.16841596555163219
sa(dp304
g95
F0.16843169344478706
sa(dp305
g95
F0.16844991631501793
sa(dp306
g95
F0.16847103045997847
sa(dp307
g95
F0.16849549529881172
sa(dp308
g95
F0.16852384348553648
sa(dp309
g95
F0.16855669266314102
sa(dp310
g95
F0.16859475913139774
sa(dp311
g95
F0.16863887374924472
sa(dp312
g95
F0.16869000044939672
sa(dp313
g95
F0.16874925781085712
sa(dp314
g95
F0.1688179442165136
sa(dp315
g95
F0.16889756722122337
sa(dp316
g95
F0.16898987787468903
sa(dp317
g95
F0.1690969108879859
sa(dp318
g95
F0.16922103170929287
sa(dp319
g95
F0.1693649917916462
sa(dp320
g95
F0.16953199360397544
sa(dp321
g95
F0.16972576727061536
sa(dp322
g95
F0.16995066114217613
sa(dp323
g95
F0.1702117491265393
sa(dp324
g95
F0.17051495827480362
sa(dp325
g95
F0.17086722096626453
sa(dp326
g95
F0.17127665712564144
sa(dp327
g95
F0.17175279331172344
sa(dp328
g95
F0.172306827342149
sa(dp329
g95
F0.17295194950369547
sa(dp330
g95
F0.17370373453022792
sa(dp331
g95
F0.17458062266876606
sa(dp332
g95
F0.1756045136490521
sa(dp333
g95
F0.1768015047037607
sa(dp334
g95
F0.17820281361146453
sa(dp335
g95
F0.17984594094941517
sa(dp336
g95
F0.1817761435673177
sa(dp337
g95
F0.1840483153702306
sa(dp338
g95
F0.18672940400938007
sa(dp339
g95
F0.18990153583619077
sa(dp340
g95
F0.19366607991841323
sa(dp341
g95
F0.19814895882915348
sa(dp342
g95
F0.2035076124178052
sa(dp343
g95
F0.2099401406505059
sa(dp344
g95
F0.21769728300671295
sa(dp345
g95
F0.2270980011220867
sa(dp346
g95
F0.238549430238378
sa(dp347
g95
F0.2525716477352667
sa(dp348
g95
F0.26982662553627024
sa(dp349
g95
F0.29114797155274325
sa(dp350
g95
F0.31756189529290046
sa(dp351
g95
F0.3502774150863809
sa(dp352
g95
F0.39060183620074374
sa(dp353
g95
F0.4397066123373185
sa(dp354
g95
F0.4981480730177041
sa(dp355
g95
F0.5651035780428104
sa(dp356
g95
F0.6375364845182618
sa(dp357
g95
F0.7099668988758006
sa(dp358
g95
F0.7757012384210228
sa(dp359
g95
F0.8293777721776683
sa(dp360
g95
F0.8690255652958129
sa(dp361
g95
F0.8959822367125315
sa(dp362
g95
F0.9132239533024553
sa(dp363
g95
F0.9237875436551517
sa(dp364
g95
F0.9300559905930269
sa(dp365
g95
F0.9336784070169047
sa(dp366
g95
F0.9357230094245077
sa(dp367
g95
F0.9368531055698767
sa(dp368
g95
F0.9374660613229199
sa(dp369
g95
F0.9377910597553207
sa(dp370
g95
F0.9379534525575403
sa(dp371
g95
F0.9380136974462286
sa(dp372
g95
F0.9379870594208187
sa(dp373
g95
F0.9378482853531284
sa(dp374
g95
F0.9375238785786696
sa(dp375
g95
F0.9368737764806888
sa(dp376
g95
F0.9356639073438534
sa(dp377
g95
F0.9335299643652772
sa(dp378
g95
F0.9299289592428587
sa(dp379
g95
F0.9240680490912929
sa(dp380
g95
F0.9147920664422601
sa(dp381
g95
F0.9004080534766344
sa(dp382
g95
F0.8784373190490183
sa(dp383
g95
F0.8453316771603557
sa(dp384
g95
F0.7962990274983065
sa(dp385
g95
F0.7255670863918049
sa(dp386
g95
F0.6275753026918367
sa(dp387
g95
F0.4993841043222833
sa(dp388
g95
F0.34360648810774513
sa(dp389
g95
F0.16979884377239762
sa(dp390
g95
F-0.007643237525439192
sa(dp391
g95
F-0.17436527193742915
sa(dp392
g95
F-0.3204320182875835
sa(dp393
g95
F-0.4417359920901686
sa(dp394
g95
F-0.5387682991525172
sa(dp395
g95
F-0.6145061360639857
sa(dp396
g95
F-0.6726921159286331
sa(dp397
g95
F-0.7168479999406914
sa(dp398
g95
F-0.7498603044814881
sa(dp399
g95
F-0.7738812016212109
sa(dp400
g95
F-0.7903558714502787
sa(dp401
g95
F-0.8000686627932269
sa(dp402
g95
F-0.8031527920152023
sa(dp403
g95
F-0.7990353054063873
sa(dp404
g95
F-0.7863079547283891
sa(dp405
g95
F-0.762552761240787
sa(dp406
g95
F-0.7242509935597885
sa(dp407
g95
F-0.6670989400499941
sa(dp408
g95
F-0.5872248585956097
sa(dp409
g95
F-0.4834507855936892
sa(dp410
g95
F-0.359395076093192
sa(dp411
g95
F-0.22315821512965442
sa(dp412
g95
F-0.08424895626662995
sa(dp413
g95
F0.04941491357586341
sa(dp414
g95
F0.17239377150437907
sa(dp415
g95
F0.2815640955400251
sa(dp416
g95
F0.37609754917953847
sa(dp417
g95
F0.4572458459545333
sa(dp418
g95
F0.5275708432482278
sa(dp419
g95
F0.5899669567473048
sa(dp420
g95
F0.6469062803130383
sa(dp421
g95
F0.7000333469322957
sa(dp422
g95
F0.750048386802195
sa(dp423
g95
F0.7968001053813616
sa(dp424
g95
F0.8395389090124886
sa(dp425
g95
F0.8772808521269208
sa(dp426
g95
F0.9091956765553356
sa(dp427
g95
F0.9349017247513266
sa(dp428
g95
F0.9545751169448735
sa(dp429
g95
F0.9688637320174417
sa(dp430
g95
F0.9786822612682777
sa(dp431
g95
F0.9849893471737334
sa(dp432
g95
F0.9886018478383292
sa(dp433
g95
F0.9900261971223852
sa(dp434
g95
F0.9892137498287095
sa(dp435
g95
F0.985076935987669
sa(dp436
g95
F0.9747427119305507
sa(dp437
g95
F0.9536258018262902
sa(dp438
g95
F0.9184891418335638
sa(dp439
g95
F0.8711345758112633
sa(dp440
g95
F0.8162389164656142
sa(dp441
g95
F0.7562435898214123
sa(dp442
g95
F0.6902413481026336
sa(dp443
g95
F0.6160726880215004
sa(dp444
g95
F0.5323943448059083
sa(dp445
g95
F0.4396175525302087
sa(dp446
g95
F0.33980567474029444
sa(dp447
g95
F0.2358899192728164
sa(dp448
g95
F0.1306846900159014
sa(dp449
g95
F0.02615433998422911
sa(dp450
g95
F-0.07684723223094969
sa(dp451
g95
F-0.1783971127281896
sa(dp452
g95
F-0.2790358569802591
sa(dp453
g95
F-0.37915757389067273
sa(dp454
g95
F-0.47837730524758254
sa(dp455
g95
F-0.575032910311335
sa(dp456
g95
F-0.6660731192285332
sa(dp457
g95
F-0.7475988423446901
sa(dp458
g95
F-0.8160564880126252
sa(dp459
g95
F-0.8695524440238618
sa(dp460
g95
F-0.9084700962728188
sa(dp461
g95
F-0.9350178647118891
sa(dp462
g95
F-0.9521466366458113
sa(dp463
g95
F-0.9625749715253702
sa(dp464
g95
F-0.9682942453888966
sa(dp465
g95
F-0.9704699084883859
sa(dp466
g95
F-0.9694943138457857
sa(dp467
g95
F-0.965009140643434
sa(dp468
g95
F-0.955831439686126
sa(dp469
g95
F-0.9398401930522882
sa(dp470
g95
F-0.914035818173544
sa(dp471
g95
F-0.8751151946386643
sa(dp472
g95
F-0.8207572395814253
sa(dp473
g95
F-0.7511782473067424
sa(dp474
g95
F-0.6698449718052356
sa(dp475
g95
F-0.5825342238949374
sa(dp476
g95
F-0.49522891470395747
sa(dp477
g95
F-0.4121922199710839
sa(dp478
g95
F-0.3351019773114739
sa(dp479
g95
F-0.2631814924682564
sa(dp480
g95
F-0.1938193692389413
sa(dp481
g95
F-0.12328444477085784
sa(dp482
g95
F-0.0474219318227812
sa(dp483
g95
F0.03758104687188936
sa(dp484
g95
F0.13421438457942012
sa(dp485
g95
F0.24244130703976344
sa(dp486
g95
F0.35866382544351805
sa(dp487
g95
F0.4757299074871906
sa(dp488
g95
F0.5847341588254795
sa(dp489
g95
F0.6780909406308566
sa(dp490
g95
F0.7519668189064952
sa(dp491
g95
F0.8065639148486667
sa(dp492
g95
F0.8446292185621629
sa(dp493
g95
F0.8696279151536233
sa(dp494
g95
F0.8845294291409072
sa(dp495
g95
F0.8912854224893864
sa(dp496
g95
F0.8906903928400017
sa(dp497
g95
F0.8823529642871982
sa(dp498
g95
F0.8646974298071056
sa(dp499
g95
F0.8351595968501427
sa(dp500
g95
F0.7909820439992717
sa(dp501
g95
F0.7309047136771611
sa(dp502
g95
F0.657052066170022
sa(dp503
g95
F0.5751294823040675
sa(dp504
g95
F0.4919814300888346
sa(dp505
g95
F0.4123544048470512
sa(dp506
g95
F0.33736161441812396
sa(dp507
g95
F0.26502675008994625
sa(dp508
g95
F0.19173516252403797
sa(dp509
g95
F0.11362021638645413
sa(dp510
g95
F0.027611736064955938
sa(dp511
g95
F-0.06778900431136013
sa(dp512
g95
F-0.17197603071228393
sa(dp513
g95
F-0.2820816863137966
sa(dp514
g95
F-0.39340277249681366
sa(dp515
g95
F-0.500442860706004
sa(dp516
g95
F-0.5982462045956305
sa(dp517
g95
F-0.6834671372690989
sa(dp518
g95
F-0.7547686919996938
sa(dp519
g95
F-0.8125520515593998
sa(dp520
g95
F-0.858327996176624
sa(dp521
g95
F-0.894071296956884
sa(dp522
g95
F-0.9217490721675374
sa(dp523
g95
F-0.9430585128795579
sa(dp524
g95
F-0.9593300399700434
sa(dp525
g95
F-0.9715394001132353
sa(dp526
g95
F-0.9803860178491086
sa(dp527
g95
F-0.9863994717803356
sa(dp528
g95
F-0.990014102253125
sa(dp529
g95
F-0.9915180319379275
sa(dp530
g95
F-0.9907724853144891
sa(dp531
g95
F-0.9866889605705133
sa(dp532
g95
F-0.9772495605494262
sa(dp533
g95
F-0.9624017166965888
sa(dp534
g95
F-0.9470329692725773
sa(dp535
g95
F-0.9355353934502236
sa(dp536
g95
F-0.926710903583981
sa(dp537
g95
F-0.9162839419543989
sa(dp538
g95
F-0.8989120368179947
sa(dp539
g95
F-0.8673135005850015
sa(dp540
g95
F-0.8120688059542268
sa(dp541
g95
F-0.7270247542982525
sa(dp542
g95
F-0.6195363953283844
sa(dp543
g95
F-0.5100684319890134
sa(dp544
g95
F-0.41667475446028607
sa(dp545
g95
F-0.34554702076028876
sa(dp546
g95
F-0.2944417808334461
sa(dp547
g95
F-0.25852879456182953
sa(dp548
g95
F-0.23335438158879174
sa(dp549
g95
F-0.21558737111902904
sa(dp550
g95
F-0.20291963548731948
sa(dp551
g95
F-0.1937913351739941
sa(dp552
g95
F-0.1871499813674244
sa(dp553
g95
F-0.18227880081570677
sa(dp554
g95
F-0.1786828692681502
sa(dp555
g95
F-0.1760152942805223
sa(dp556
g95
F-0.17402942681725658
sa(dp557
g95
F-0.17254762896592785
sa(dp558
g95
F-0.17144055489863963
sa(dp559
g95
F-0.17061316609146535
sa(dp560
g95
F-0.16999512255653756
sa(dp561
g95
F-0.1695340673554768
sa(dp562
g95
F-0.16919085979266982
sa(dp563
g95
F-0.16893614548031316
sa(dp564
g95
F-0.16874785966201813
sa(dp565
g95
F-0.16860939240966488
sa(dp566
g95
F-0.16850822976633534
sa(dp567
g95
F-0.16843494118844204
sa(dp568
g95
F-0.16838242142587787
sa(dp569
g95
F-0.1683453208317885
sa(dp570
g95
F-0.16831961609973325
sa(dp571
g95
F-0.16830228617161913
sa(dp572
g95
F-0.16829106721103843
sa(dp573
g95
F-0.1682842671874979
sa(dp574
g95
F-0.16828062549978057
sa(dp575
g95
F-0.16827920668110052
sa(dp576
g95
F-0.1682793199219005
sa(dp577
g95
F-0.1682804581634051
sa(dp578
g95
F-0.16828225203204736
sa(dp579
g95
F-0.16828443502931997
sa(dp580
g95
F-0.16828681725685457
sa(dp581
g95
F-0.16828926561201296
sa(dp582
g95
F-0.16829168888625834
sa(dp583
g95
F-0.16829402657596856
sa(dp584
g95
F-0.16829624050186268
sa(dp585
g95
F-0.16829830855105077
sa(dp586
g95
F-0.16830022002113598
sa(dp587
g95
F-0.16830197217162646
sa(dp588
g95
F-0.1683035676834778
sa(dp589
g95
F-0.16830501280021412
sa(dp590
g95
F-0.16830631597923668
sa(dp591
g95
F-0.16830748692383649
sa(dp592
g95
F-0.16830853589815742
sa(dp593
g95
F-0.16830947325153922
sa(dp594
g95
F-0.16831030909684708
sa(dp595
g95
F-0.1683110531013036
sa(dp596
g95
F-0.16831171435873932
sa(dp597
g95
F-0.16831230132014793
sa(dp598
g95
F-0.16831282176529228
sa(dp599
g95
F-0.1683132828027175
sa(dp600
g95
F-0.16831369088878828
sa(dp601
g95
F-0.168314051858979
sa(dp602
g95
F-0.16831437096649177
sa(dp603
g95
F-0.16831465292469167
sa(dp604
g95
F-0.16831490195091062
sa(dp605
g95
F-0.168315121809911
sa(dp606
g95
F-0.16831531585590706
sa(dp607
g95
F-0.16831548707240673
sa(dp608
g95
F-0.1683156381094736
sa(dp609
g95
F-0.16831577131819872
sa(dp610
g95
F-0.16831588878231027
sa(dp611
g95
F-0.16831599234698208
sa(dp612
g95
F-0.16831608364493417
sasS'out_result'
p613
g612
sb.